; Function Attrs: mustprogress nofree norecurse nosync nounwind willreturn memory(readwrite, inaccessiblemem: none) uwtable
define noundef i32 @cli_bcapi_get_pe_section(ptr nocapture noundef readonly %0, ptr nocapture noundef writeonly %1, i32 noundef %2) local_unnamed_addr #10 {
  %4 = getelementptr inbounds i8, ptr %0, i64 128
  %5 = load ptr, ptr %4, align 8
  %6 = getelementptr inbounds i8, ptr %5, i64 8
  %7 = load i16, ptr %6, align 8
  %8 = zext i16 %7 to i32
  %9 = icmp ugt i32 %8, %2
  br i1 %9, label %10, label %15

10:                                               ; preds = %3
  %11 = getelementptr inbounds i8, ptr %0, i64 1064
  %12 = load ptr, ptr %11, align 8
  %13 = zext nneg i32 %2 to i64
  %14 = getelementptr inbounds %struct.cli_exe_section, ptr %12, i64 %13
  tail call void @llvm.memcpy.p0.p0.i64(ptr noundef nonnull align 4 dereferenceable(36) %1, ptr noundef nonnull align 4 dereferenceable(36) %14, i64 36, i1 false)
  br label %15

15:                                               ; preds = %3, %10
  %.0 = phi i32 [ 0, %10 ], [ -1, %3 ]
  ret i32 %.0
}